(dp0
Vtest3
p1
(g1
Vtest3
p2
I00
tp3
sVtest4
p4
(g4
Vtest4
p5
I00
tp6
sVtestnew
p7
(g7
Vtestnew
p8
I00
tp9
sS'demo'
p10
(S'demo'
p11
g11
tp12
sVkylegao
p13
(g13
Vabcd1234!
p14
tp15
sS'kyle'
p16
(S'kyle'
p17
g17
tp18
sVpopol1991
p19
(g19
Vabcd1234!
p20
tp21
sVkylegao1
p22
(g22
Va
p23
tp24
sVtest
p25
(g25
Vtest
p26
I00
tp27
sVhuiying
p28
(g28
Vhuiying
p29
I00
tp30
sVcallan
p31
(g31
Vpassword
p32
I00
tp33
sVtestsurvey
p34
(g34
Vtest
p35
I00
tp36
s.