(dp0
S'demo'
p1
(S'demo'
p2
g2
tp3
sS'kyle'
p4
(S'kyle'
p5
g5
tp6
sVkylegao1
p7
(g7
Va
p8
tp9
sVpopol1991
p10
(g10
Vabcd1234!
p11
tp12
sVkylegao
p13
(g13
Vabcd1234!
p14
tp15
sVtest
p16
(g16
Vtest
p17
I00
tp18
sVhuiying
p19
(g19
Vhuiying
p20
I00
tp21
s.